target datalayout = "e-m:e-p270:32:32-p271:32:32-p272:64:64-i64:64-i128:128-f80:128-n8:16:32:64-S128"
target triple = "x86_64-pc-linux-gnu"

%struct.jpeg_decompress_struct = type { ptr, ptr, ptr, ptr, i32, i32, ptr, i32, i32, i32, i32, i32, i32, i32, double, i32, i32, i32, i32, i32, i32, i32, i32, i32, i32, i32, i32, i32, i32, i32, i32, i32, i32, ptr, i32, i32, i32, i32, i32, ptr, [4 x ptr], [4 x ptr], [4 x ptr], i32, ptr, i32, i32, [16 x i8], [16 x i8], [16 x i8], i32, i32, i8, i8, i8, i16, i16, i32, i8, i32, ptr, i32, i32, i32, i32, ptr, i32, [4 x ptr], i32, i32, i32, [10 x i32], i32, i32, i32, i32, i32, ptr, ptr, ptr, ptr, ptr, ptr, ptr, ptr, ptr, ptr, ptr }
%struct.jpeg_error_mgr = type { ptr, ptr, ptr, ptr, ptr, i32, %union.anon, i32, i64, ptr, i32, ptr, i32, i32 }
%union.anon = type { [8 x i32], [48 x i8] }
%struct.ppm_dest_struct = type { %struct.djpeg_dest_struct, ptr, ptr, i64, i32 }
%struct.djpeg_dest_struct = type { ptr, ptr, ptr, ptr, ptr, ptr, ptr, ptr, i32 }

@.str = private unnamed_addr constant [15 x i8] c"P5\0A%ld %ld\0A%d\0A\00", align 1
@.str.1 = private unnamed_addr constant [15 x i8] c"P6\0A%ld %ld\0A%d\0A\00", align 1

; Function Attrs: nounwind uwtable
define internal void @start_output_ppm(ptr noundef %0, ptr noundef %1) #0 {
  %3 = alloca ptr, align 8
  %4 = alloca ptr, align 8
  %5 = alloca ptr, align 8
  store ptr %0, ptr %3, align 8, !tbaa !4
  store ptr %1, ptr %4, align 8, !tbaa !61
  call void @llvm.lifetime.start.p0(i64 8, ptr %5) #6
  %6 = load ptr, ptr %4, align 8, !tbaa !61
  store ptr %6, ptr %5, align 8, !tbaa !42
  %7 = load ptr, ptr %3, align 8, !tbaa !4
  %8 = getelementptr inbounds nuw %struct.jpeg_decompress_struct, ptr %7, i32 0, i32 11
  %9 = load i32, ptr %8, align 8, !tbaa !53
  switch i32 %9, label %79 [
    i32 1, label %10
    i32 2, label %29
    i32 6, label %29
    i32 7, label %29
    i32 8, label %29
    i32 9, label %29
    i32 10, label %29
    i32 11, label %29
    i32 12, label %29
    i32 13, label %29
    i32 14, label %29
    i32 15, label %29
    i32 4, label %29
  ]

10:                                               ; preds = %2
  %11 = load ptr, ptr %5, align 8, !tbaa !42
  %12 = getelementptr inbounds nuw %struct.ppm_dest_struct, ptr %11, i32 0, i32 0
  %13 = getelementptr inbounds nuw %struct.djpeg_dest_struct, ptr %12, i32 0, i32 4
  %14 = load ptr, ptr %13, align 8, !tbaa !63
  %15 = load ptr, ptr %3, align 8, !tbaa !4
  %16 = getelementptr inbounds nuw %struct.jpeg_decompress_struct, ptr %15, i32 0, i32 27
  %17 = load i32, ptr %16, align 8, !tbaa !55
  %18 = zext i32 %17 to i64
  %19 = load ptr, ptr %3, align 8, !tbaa !4
  %20 = getelementptr inbounds nuw %struct.jpeg_decompress_struct, ptr %19, i32 0, i32 28
  %21 = load i32, ptr %20, align 4, !tbaa !64
  %22 = zext i32 %21 to i64
  %23 = load ptr, ptr %3, align 8, !tbaa !4
  %24 = getelementptr inbounds nuw %struct.jpeg_decompress_struct, ptr %23, i32 0, i32 43
  %25 = load i32, ptr %24, align 8, !tbaa !9
  %26 = shl i32 1, %25
  %27 = sub nsw i32 %26, 1
  %28 = call i32 (ptr, ptr, ...) @fprintf(ptr noundef %14, ptr noundef @.str, i64 noundef %18, i64 noundef %22, i32 noundef %27) #6
  br label %90

29:                                               ; preds = %2, %2, %2, %2, %2, %2, %2, %2, %2, %2, %2, %2
  %30 = load ptr, ptr %3, align 8, !tbaa !4
  %31 = getelementptr inbounds nuw %struct.jpeg_decompress_struct, ptr %30, i32 0, i32 11
  %32 = load i32, ptr %31, align 8, !tbaa !53
  %33 = icmp eq i32 %32, 2
  br i1 %33, label %60, label %34

34:                                               ; preds = %29
  %35 = load ptr, ptr %3, align 8, !tbaa !4
  %36 = getelementptr inbounds nuw %struct.jpeg_decompress_struct, ptr %35, i32 0, i32 11
  %37 = load i32, ptr %36, align 8, !tbaa !53
  %38 = icmp uge i32 %37, 6
  br i1 %38, label %39, label %44

39:                                               ; preds = %34
  %40 = load ptr, ptr %3, align 8, !tbaa !4
  %41 = getelementptr inbounds nuw %struct.jpeg_decompress_struct, ptr %40, i32 0, i32 11
  %42 = load i32, ptr %41, align 8, !tbaa !53
  %43 = icmp ule i32 %42, 15
  br i1 %43, label %60, label %44

44:                                               ; preds = %39, %34
  %45 = load ptr, ptr %3, align 8, !tbaa !4
  %46 = getelementptr inbounds nuw %struct.jpeg_decompress_struct, ptr %45, i32 0, i32 20
  %47 = load i32, ptr %46, align 4, !tbaa !52
  %48 = icmp ne i32 %47, 0
  br i1 %48, label %49, label %60

49:                                               ; preds = %44
  %50 = load ptr, ptr %3, align 8, !tbaa !4
  %51 = getelementptr inbounds nuw %struct.jpeg_decompress_struct, ptr %50, i32 0, i32 0
  %52 = load ptr, ptr %51, align 8, !tbaa !33
  %53 = getelementptr inbounds nuw %struct.jpeg_error_mgr, ptr %52, i32 0, i32 5
  store i32 1028, ptr %53, align 8, !tbaa !34
  %54 = load ptr, ptr %3, align 8, !tbaa !4
  %55 = getelementptr inbounds nuw %struct.jpeg_decompress_struct, ptr %54, i32 0, i32 0
  %56 = load ptr, ptr %55, align 8, !tbaa !33
  %57 = getelementptr inbounds nuw %struct.jpeg_error_mgr, ptr %56, i32 0, i32 0
  %58 = load ptr, ptr %57, align 8, !tbaa !38
  %59 = load ptr, ptr %3, align 8, !tbaa !4
  call void %58(ptr noundef %59)
  br label %60

60:                                               ; preds = %49, %44, %39, %29
  %61 = load ptr, ptr %5, align 8, !tbaa !42
  %62 = getelementptr inbounds nuw %struct.ppm_dest_struct, ptr %61, i32 0, i32 0
  %63 = getelementptr inbounds nuw %struct.djpeg_dest_struct, ptr %62, i32 0, i32 4
  %64 = load ptr, ptr %63, align 8, !tbaa !63
  %65 = load ptr, ptr %3, align 8, !tbaa !4
  %66 = getelementptr inbounds nuw %struct.jpeg_decompress_struct, ptr %65, i32 0, i32 27
  %67 = load i32, ptr %66, align 8, !tbaa !55
  %68 = zext i32 %67 to i64
  %69 = load ptr, ptr %3, align 8, !tbaa !4
  %70 = getelementptr inbounds nuw %struct.jpeg_decompress_struct, ptr %69, i32 0, i32 28
  %71 = load i32, ptr %70, align 4, !tbaa !64
  %72 = zext i32 %71 to i64
  %73 = load ptr, ptr %3, align 8, !tbaa !4
  %74 = getelementptr inbounds nuw %struct.jpeg_decompress_struct, ptr %73, i32 0, i32 43
  %75 = load i32, ptr %74, align 8, !tbaa !9
  %76 = shl i32 1, %75
  %77 = sub nsw i32 %76, 1
  %78 = call i32 (ptr, ptr, ...) @fprintf(ptr noundef %64, ptr noundef @.str.1, i64 noundef %68, i64 noundef %72, i32 noundef %77) #6
  br label %90

79:                                               ; preds = %2
  %80 = load ptr, ptr %3, align 8, !tbaa !4
  %81 = getelementptr inbounds nuw %struct.jpeg_decompress_struct, ptr %80, i32 0, i32 0
  %82 = load ptr, ptr %81, align 8, !tbaa !33
  %83 = getelementptr inbounds nuw %struct.jpeg_error_mgr, ptr %82, i32 0, i32 5
  store i32 1028, ptr %83, align 8, !tbaa !34
  %84 = load ptr, ptr %3, align 8, !tbaa !4
  %85 = getelementptr inbounds nuw %struct.jpeg_decompress_struct, ptr %84, i32 0, i32 0
  %86 = load ptr, ptr %85, align 8, !tbaa !33
  %87 = getelementptr inbounds nuw %struct.jpeg_error_mgr, ptr %86, i32 0, i32 0
  %88 = load ptr, ptr %87, align 8, !tbaa !38
  %89 = load ptr, ptr %3, align 8, !tbaa !4
  call void %88(ptr noundef %89)
  br label %90

90:                                               ; preds = %79, %60, %10
  call void @llvm.lifetime.end.p0(i64 8, ptr %5) #6
  ret void
}