; Function Attrs: nounwind uwtable
define internal void @start_output_ppm(ptr noundef %0, ptr noundef readonly captures(none) %1) #0 {
  %3 = getelementptr inbounds nuw i8, ptr %0, i64 64
  %4 = load i32, ptr %3, align 8, !tbaa !50
  switch i32 %4, label %40 [
    i32 1, label %5
    i32 2, label %27
    i32 4, label %18
    i32 6, label %18
    i32 7, label %18
    i32 8, label %18
    i32 9, label %18
    i32 10, label %18
    i32 11, label %18
    i32 12, label %18
    i32 13, label %18
    i32 14, label %18
    i32 15, label %18
  ]

5:                                                ; preds = %2
  %6 = getelementptr inbounds nuw i8, ptr %1, i64 32
  %7 = load ptr, ptr %6, align 8, !tbaa !58
  %8 = getelementptr inbounds nuw i8, ptr %0, i64 136
  %9 = load i32, ptr %8, align 8, !tbaa !52
  %10 = zext i32 %9 to i64
  %11 = getelementptr inbounds nuw i8, ptr %0, i64 140
  %12 = load i32, ptr %11, align 4, !tbaa !59
  %13 = zext i32 %12 to i64
  %14 = getelementptr inbounds nuw i8, ptr %0, i64 296
  %15 = load i32, ptr %14, align 8, !tbaa !4
  %notmask20 = shl nsw i32 -1, %15
  %16 = xor i32 %notmask20, -1
  %17 = tail call i32 (ptr, ptr, ...) @fprintf(ptr noundef %7, ptr noundef nonnull @.str, i64 noundef %10, i64 noundef %13, i32 noundef %16) #7
  br label %44

18:                                               ; preds = %2, %2, %2, %2, %2, %2, %2, %2, %2, %2, %2
  %19 = icmp samesign ugt i32 %4, 5
  br i1 %19, label %27, label %20

20:                                               ; preds = %18
  %21 = getelementptr inbounds nuw i8, ptr %0, i64 108
  %22 = load i32, ptr %21, align 4, !tbaa !49
  %.not = icmp eq i32 %22, 0
  br i1 %.not, label %27, label %23

23:                                               ; preds = %20
  %24 = load ptr, ptr %0, align 8, !tbaa !31
  %25 = getelementptr inbounds nuw i8, ptr %24, i64 40
  store i32 1028, ptr %25, align 8, !tbaa !32
  %26 = load ptr, ptr %24, align 8, !tbaa !36
  tail call void %26(ptr noundef nonnull %0) #7
  br label %27

27:                                               ; preds = %2, %18, %23, %20
  %28 = getelementptr inbounds nuw i8, ptr %1, i64 32
  %29 = load ptr, ptr %28, align 8, !tbaa !58
  %30 = getelementptr inbounds nuw i8, ptr %0, i64 136
  %31 = load i32, ptr %30, align 8, !tbaa !52
  %32 = zext i32 %31 to i64
  %33 = getelementptr inbounds nuw i8, ptr %0, i64 140
  %34 = load i32, ptr %33, align 4, !tbaa !59
  %35 = zext i32 %34 to i64
  %36 = getelementptr inbounds nuw i8, ptr %0, i64 296
  %37 = load i32, ptr %36, align 8, !tbaa !4
  %notmask = shl nsw i32 -1, %37
  %38 = xor i32 %notmask, -1
  %39 = tail call i32 (ptr, ptr, ...) @fprintf(ptr noundef %29, ptr noundef nonnull @.str.1, i64 noundef %32, i64 noundef %35, i32 noundef %38) #7
  br label %44

40:                                               ; preds = %2
  %41 = load ptr, ptr %0, align 8, !tbaa !31
  %42 = getelementptr inbounds nuw i8, ptr %41, i64 40
  store i32 1028, ptr %42, align 8, !tbaa !32
  %43 = load ptr, ptr %41, align 8, !tbaa !36
  tail call void %43(ptr noundef nonnull %0) #7
  br label %44

44:                                               ; preds = %40, %27, %5
  ret void
}